target datalayout = "e-m:e-p270:32:32-p271:32:32-p272:64:64-i64:64-i128:128-f80:128-n8:16:32:64-S128"
target triple = "x86_64-pc-linux-gnu"

; Function Attrs: mustprogress uwtable
define noundef zeroext i1 @_Z25zmq_poll_must_break_loop_liRbRN3zmq7clock_tERmS3_(i64 noundef %0, i32 noundef %1, ptr noundef nonnull align 1 dereferenceable(1) %2, ptr noundef nonnull align 8 dereferenceable(16) %3, ptr noundef nonnull align 8 dereferenceable(8) %4, ptr noundef nonnull align 8 dereferenceable(8) %5) #1 {
  %7 = alloca i1, align 1
  %8 = alloca i64, align 8
  %9 = alloca i32, align 4
  %10 = alloca ptr, align 8
  %11 = alloca ptr, align 8
  %12 = alloca ptr, align 8
  %13 = alloca ptr, align 8
  store i64 %0, ptr %8, align 8, !tbaa !13
  store i32 %1, ptr %9, align 4, !tbaa !8
  store ptr %2, ptr %10, align 8, !tbaa !103
  store ptr %3, ptr %11, align 8, !tbaa !105
  store ptr %4, ptr %12, align 8, !tbaa !15
  store ptr %5, ptr %13, align 8, !tbaa !15
  %14 = load i64, ptr %8, align 8, !tbaa !13
  %15 = icmp eq i64 %14, 0
  br i1 %15, label %16, label %17

16:                                               ; preds = %6
  store i1 true, ptr %7, align 1
  br label %63

17:                                               ; preds = %6
  %18 = load i32, ptr %9, align 4, !tbaa !8
  %19 = icmp ne i32 %18, 0
  br i1 %19, label %20, label %21

20:                                               ; preds = %17
  store i1 true, ptr %7, align 1
  br label %63

21:                                               ; preds = %17
  %22 = load i64, ptr %8, align 8, !tbaa !13
  %23 = icmp slt i64 %22, 0
  br i1 %23, label %24, label %31

24:                                               ; preds = %21
  %25 = load ptr, ptr %10, align 8, !tbaa !103
  %26 = load i8, ptr %25, align 1, !tbaa !34, !range !36, !noundef !37
  %27 = trunc i8 %26 to i1
  br i1 %27, label %28, label %30

28:                                               ; preds = %24
  %29 = load ptr, ptr %10, align 8, !tbaa !103
  store i8 0, ptr %29, align 1, !tbaa !34
  br label %30

30:                                               ; preds = %28, %24
  store i1 false, ptr %7, align 1
  br label %63

31:                                               ; preds = %21
  %32 = load ptr, ptr %10, align 8, !tbaa !103
  %33 = load i8, ptr %32, align 1, !tbaa !34, !range !36, !noundef !37
  %34 = trunc i8 %33 to i1
  br i1 %34, label %35, label %52

35:                                               ; preds = %31
  %36 = load ptr, ptr %11, align 8, !tbaa !105
  %37 = call noundef i64 @_ZN3zmq7clock_t6now_msEv(ptr noundef nonnull align 8 dereferenceable(16) %36)
  %38 = load ptr, ptr %12, align 8, !tbaa !15
  store i64 %37, ptr %38, align 8, !tbaa !13
  %39 = load ptr, ptr %12, align 8, !tbaa !15
  %40 = load i64, ptr %39, align 8, !tbaa !13
  %41 = load i64, ptr %8, align 8, !tbaa !13
  %42 = add i64 %40, %41
  %43 = load ptr, ptr %13, align 8, !tbaa !15
  store i64 %42, ptr %43, align 8, !tbaa !13
  %44 = load ptr, ptr %12, align 8, !tbaa !15
  %45 = load i64, ptr %44, align 8, !tbaa !13
  %46 = load ptr, ptr %13, align 8, !tbaa !15
  %47 = load i64, ptr %46, align 8, !tbaa !13
  %48 = icmp eq i64 %45, %47
  br i1 %48, label %49, label %50

49:                                               ; preds = %35
  store i1 true, ptr %7, align 1
  br label %63

50:                                               ; preds = %35
  %51 = load ptr, ptr %10, align 8, !tbaa !103
  store i8 0, ptr %51, align 1, !tbaa !34
  store i1 false, ptr %7, align 1
  br label %63

52:                                               ; preds = %31
  %53 = load ptr, ptr %11, align 8, !tbaa !105
  %54 = call noundef i64 @_ZN3zmq7clock_t6now_msEv(ptr noundef nonnull align 8 dereferenceable(16) %53)
  %55 = load ptr, ptr %12, align 8, !tbaa !15
  store i64 %54, ptr %55, align 8, !tbaa !13
  %56 = load ptr, ptr %12, align 8, !tbaa !15
  %57 = load i64, ptr %56, align 8, !tbaa !13
  %58 = load ptr, ptr %13, align 8, !tbaa !15
  %59 = load i64, ptr %58, align 8, !tbaa !13
  %60 = icmp uge i64 %57, %59
  br i1 %60, label %61, label %62

61:                                               ; preds = %52
  store i1 true, ptr %7, align 1
  br label %63

62:                                               ; preds = %52
  store i1 false, ptr %7, align 1
  br label %63

63:                                               ; preds = %62, %61, %50, %49, %30, %20, %16
  %64 = load i1, ptr %7, align 1
  ret i1 %64
}