; Function Attrs: mustprogress uwtable
define noundef zeroext i1 @_Z25zmq_poll_must_break_loop_liRbRN3zmq7clock_tERmS3_(i64 noundef %0, i32 noundef %1, ptr noundef nonnull align 1 captures(none) dereferenceable(1) %2, ptr noundef nonnull align 8 dereferenceable(16) %3, ptr noundef nonnull align 8 captures(none) dereferenceable(8) %4, ptr noundef nonnull align 8 captures(none) dereferenceable(8) %5) local_unnamed_addr #1 {
  %7 = icmp ne i64 %0, 0
  %.not = icmp eq i32 %1, 0
  %or.cond = and i1 %7, %.not
  br i1 %or.cond, label %8, label %23

8:                                                ; preds = %6
  %9 = icmp slt i64 %0, 0
  %10 = load i8, ptr %2, align 1, !tbaa !67, !range !69, !noundef !70
  %11 = trunc nuw i8 %10 to i1
  br i1 %9, label %12, label %14

12:                                               ; preds = %8
  br i1 %11, label %13, label %23

13:                                               ; preds = %12
  store i8 0, ptr %2, align 1, !tbaa !67
  br label %23

14:                                               ; preds = %8
  %15 = tail call noundef i64 @_ZN3zmq7clock_t6now_msEv(ptr noundef nonnull align 8 dereferenceable(16) %3)
  store i64 %15, ptr %4, align 8, !tbaa !7
  br i1 %11, label %16, label %21

16:                                               ; preds = %14
  %17 = add i64 %15, %0
  store i64 %17, ptr %5, align 8, !tbaa !7
  %18 = load i64, ptr %4, align 8, !tbaa !7
  %19 = icmp eq i64 %18, %17
  br i1 %19, label %23, label %20

20:                                               ; preds = %16
  store i8 0, ptr %2, align 1, !tbaa !67
  br label %23

21:                                               ; preds = %14
  %22 = load i64, ptr %5, align 8, !tbaa !7
  %.not19 = icmp uge i64 %15, %22
  br label %23

23:                                               ; preds = %21, %16, %12, %13, %6, %20
  %.0 = phi i1 [ false, %20 ], [ true, %6 ], [ false, %13 ], [ false, %12 ], [ true, %16 ], [ %.not19, %21 ]
  ret i1 %.0
}